target datalayout = "e-m:e-p270:32:32-p271:32:32-p272:64:64-i64:64-i128:128-f80:128-n8:16:32:64-S128"
target triple = "x86_64-pc-linux-gnu"

; Function Attrs: nounwind uwtable
define void @swapInfoAdjacentVars(i32 noundef %0, ptr noundef %1, ptr noundef %2) #0 {
  %4 = alloca i32, align 4
  %5 = alloca ptr, align 8
  %6 = alloca ptr, align 8
  %7 = alloca i8, align 1
  store i32 %0, ptr %4, align 4, !tbaa !8
  store ptr %1, ptr %5, align 8, !tbaa !35
  store ptr %2, ptr %6, align 8, !tbaa !32
  call void @llvm.lifetime.start.p0(i64 1, ptr %7) #7
  %8 = load ptr, ptr %5, align 8, !tbaa !35
  %9 = load i32, ptr %4, align 4, !tbaa !8
  %10 = sext i32 %9 to i64
  %11 = getelementptr inbounds i8, ptr %8, i64 %10
  %12 = load i8, ptr %11, align 1, !tbaa !37
  store i8 %12, ptr %7, align 1, !tbaa !37
  %13 = load ptr, ptr %5, align 8, !tbaa !35
  %14 = load i32, ptr %4, align 4, !tbaa !8
  %15 = add nsw i32 %14, 1
  %16 = sext i32 %15 to i64
  %17 = getelementptr inbounds i8, ptr %13, i64 %16
  %18 = load i8, ptr %17, align 1, !tbaa !37
  %19 = load ptr, ptr %5, align 8, !tbaa !35
  %20 = load i32, ptr %4, align 4, !tbaa !8
  %21 = sext i32 %20 to i64
  %22 = getelementptr inbounds i8, ptr %19, i64 %21
  store i8 %18, ptr %22, align 1, !tbaa !37
  %23 = load i8, ptr %7, align 1, !tbaa !37
  %24 = load ptr, ptr %5, align 8, !tbaa !35
  %25 = load i32, ptr %4, align 4, !tbaa !8
  %26 = add nsw i32 %25, 1
  %27 = sext i32 %26 to i64
  %28 = getelementptr inbounds i8, ptr %24, i64 %27
  store i8 %23, ptr %28, align 1, !tbaa !37
  %29 = load ptr, ptr %6, align 8, !tbaa !32
  %30 = load i32, ptr %29, align 4, !tbaa !8
  %31 = load i32, ptr %4, align 4, !tbaa !8
  %32 = shl i32 1, %31
  %33 = and i32 %30, %32
  %34 = icmp ugt i32 %33, 0
  %35 = zext i1 %34 to i32
  %36 = load ptr, ptr %6, align 8, !tbaa !32
  %37 = load i32, ptr %36, align 4, !tbaa !8
  %38 = load i32, ptr %4, align 4, !tbaa !8
  %39 = add nsw i32 %38, 1
  %40 = shl i32 1, %39
  %41 = and i32 %37, %40
  %42 = icmp ugt i32 %41, 0
  %43 = zext i1 %42 to i32
  %44 = icmp ne i32 %35, %43
  br i1 %44, label %45, label %57

45:                                               ; preds = %3
  %46 = load i32, ptr %4, align 4, !tbaa !8
  %47 = shl i32 1, %46
  %48 = load ptr, ptr %6, align 8, !tbaa !32
  %49 = load i32, ptr %48, align 4, !tbaa !8
  %50 = xor i32 %49, %47
  store i32 %50, ptr %48, align 4, !tbaa !8
  %51 = load i32, ptr %4, align 4, !tbaa !8
  %52 = add nsw i32 %51, 1
  %53 = shl i32 1, %52
  %54 = load ptr, ptr %6, align 8, !tbaa !32
  %55 = load i32, ptr %54, align 4, !tbaa !8
  %56 = xor i32 %55, %53
  store i32 %56, ptr %54, align 4, !tbaa !8
  br label %57

57:                                               ; preds = %45, %3
  call void @llvm.lifetime.end.p0(i64 1, ptr %7) #7
  ret void
}