; Function Attrs: mustprogress nofree norecurse nosync nounwind willreturn memory(argmem: readwrite) uwtable
define void @swapInfoAdjacentVars(i32 noundef %0, ptr noundef captures(none) %1, ptr noundef captures(none) %2) local_unnamed_addr #16 {
  %4 = sext i32 %0 to i64
  %5 = getelementptr inbounds i8, ptr %1, i64 %4
  %6 = load i8, ptr %5, align 1, !tbaa !31
  %7 = add nsw i32 %0, 1
  %8 = sext i32 %7 to i64
  %9 = getelementptr inbounds i8, ptr %1, i64 %8
  %10 = load i8, ptr %9, align 1, !tbaa !31
  store i8 %10, ptr %5, align 1, !tbaa !31
  store i8 %6, ptr %9, align 1, !tbaa !31
  %11 = load i32, ptr %2, align 4, !tbaa !29
  %12 = lshr i32 %11, %0
  %13 = lshr i32 %11, %7
  %14 = xor i32 %12, %13
  %15 = and i32 %14, 1
  %.not = icmp eq i32 %15, 0
  br i1 %.not, label %19, label %16

16:                                               ; preds = %3
  %17 = shl i32 3, %0
  %18 = xor i32 %11, %17
  store i32 %18, ptr %2, align 4, !tbaa !29
  br label %19

19:                                               ; preds = %16, %3
  ret void
}